target datalayout = "e-m:e-p270:32:32-p271:32:32-p272:64:64-i64:64-i128:128-f80:128-n8:16:32:64-S128"
target triple = "x86_64-pc-linux-gnu"

%"struct.std::_Vector_base" = type { %"struct.std::_Vector_base<int, std::allocator<int>>::_Vector_impl" }
%"struct.std::_Vector_base<int, std::allocator<int>>::_Vector_impl" = type { %"struct.std::_Vector_base<int, std::allocator<int>>::_Vector_impl_data" }
%"struct.std::_Vector_base<int, std::allocator<int>>::_Vector_impl_data" = type { ptr, ptr, ptr }
%"class.std::__cxx11::basic_string.3" = type { %"struct.std::__cxx11::basic_string<char>::_Alloc_hider", i64, %union.anon.7 }
%"struct.std::__cxx11::basic_string<char>::_Alloc_hider" = type { ptr }
%union.anon.7 = type { i64, [8 x i8] }
%"class.__gnu_cxx::__normal_iterator" = type { ptr }

@_ZN5ZXing6Pdf417L13SHIFT_TO_BYTEE = internal constant i32 913, align 4
@_ZN5ZXing6Pdf417L13LATCH_TO_BYTEE = internal constant i32 924, align 4
@_ZN5ZXing6Pdf417L20LATCH_TO_BYTE_PADDEDE = internal constant i32 901, align 4

; Function Attrs: mustprogress nounwind optsize uwtable
define linkonce_odr void @_ZN9__gnu_cxx17__normal_iteratorIPiSt6vectorIiSaIiEEEC2ERKS1_(ptr noundef nonnull align 8 dereferenceable(8) %0, ptr noundef nonnull align 8 dereferenceable(8) %1) unnamed_addr #1 comdat align 2 {
  %3 = alloca ptr, align 8
  %4 = alloca ptr, align 8
  store ptr %0, ptr %3, align 8, !tbaa !73
  store ptr %1, ptr %4, align 8, !tbaa !75
  %5 = load ptr, ptr %3, align 8
  %6 = getelementptr inbounds nuw %"class.__gnu_cxx::__normal_iterator", ptr %5, i32 0, i32 0
  %7 = load ptr, ptr %4, align 8, !tbaa !75
  %8 = load ptr, ptr %7, align 8, !tbaa !20
  store ptr %8, ptr %6, align 8, !tbaa !78
  ret void
}

; Function Attrs: mustprogress nounwind optsize uwtable
define linkonce_odr noundef ptr @_ZSt12construct_atIiJRKiEEDTgsnwcvPvLi0E_T_pispclsr3stdE7declvalIT0_EEEEPS3_DpOS4_(ptr noundef %0, ptr noundef nonnull align 4 dereferenceable(4) %1) #1 comdat {
  %3 = alloca ptr, align 8
  %4 = alloca ptr, align 8
  store ptr %0, ptr %3, align 8, !tbaa !20
  store ptr %1, ptr %4, align 8, !tbaa !20
  %5 = load ptr, ptr %3, align 8, !tbaa !20
  %6 = load ptr, ptr %4, align 8, !tbaa !20
  %7 = load i32, ptr %6, align 4, !tbaa !12
  store i32 %7, ptr %5, align 4, !tbaa !12
  ret ptr %5
}

; Function Attrs: mustprogress nounwind optsize uwtable
define linkonce_odr noundef ptr @_ZNKSt7__cxx1112basic_stringIcSt11char_traitsIcESaIcEE7_M_dataEv(ptr noundef nonnull align 8 dereferenceable(32) %0) #1 comdat align 2 {
  %2 = alloca ptr, align 8
  store ptr %0, ptr %2, align 8, !tbaa !41
  %3 = load ptr, ptr %2, align 8
  %4 = getelementptr inbounds nuw %"class.std::__cxx11::basic_string.3", ptr %3, i32 0, i32 0
  %5 = getelementptr inbounds nuw %"struct.std::__cxx11::basic_string<char>::_Alloc_hider", ptr %4, i32 0, i32 0
  %6 = load ptr, ptr %5, align 8, !tbaa !88
  ret ptr %6
}

; Function Attrs: mustprogress nounwind optsize uwtable
define linkonce_odr ptr @_ZNSt6vectorIiSaIiEE3endEv(ptr noundef nonnull align 8 dereferenceable(24) %0) #1 comdat align 2 {
  %2 = alloca %"class.__gnu_cxx::__normal_iterator", align 8
  %3 = alloca ptr, align 8
  store ptr %0, ptr %3, align 8, !tbaa !16
  %4 = load ptr, ptr %3, align 8
  %5 = getelementptr inbounds nuw %"struct.std::_Vector_base", ptr %4, i32 0, i32 0
  %6 = getelementptr inbounds nuw %"struct.std::_Vector_base<int, std::allocator<int>>::_Vector_impl_data", ptr %5, i32 0, i32 1
  call void @_ZN9__gnu_cxx17__normal_iteratorIPiSt6vectorIiSaIiEEEC2ERKS1_(ptr noundef nonnull align 8 dereferenceable(8) %2, ptr noundef nonnull align 8 dereferenceable(8) %6) #18
  %7 = getelementptr inbounds nuw %"class.__gnu_cxx::__normal_iterator", ptr %2, i32 0, i32 0
  %8 = load ptr, ptr %7, align 8
  ret ptr %8
}

; Function Attrs: mustprogress nounwind optsize uwtable
define linkonce_odr void @_ZNSt16allocator_traitsISaIiEE9constructIiJRKiEEEvRS0_PT_DpOT0_(ptr noundef nonnull align 1 dereferenceable(1) %0, ptr noundef %1, ptr noundef nonnull align 4 dereferenceable(4) %2) #1 comdat align 2 {
  %4 = alloca ptr, align 8
  %5 = alloca ptr, align 8
  %6 = alloca ptr, align 8
  store ptr %0, ptr %4, align 8, !tbaa !63
  store ptr %1, ptr %5, align 8, !tbaa !20
  store ptr %2, ptr %6, align 8, !tbaa !20
  %7 = load ptr, ptr %5, align 8, !tbaa !20
  %8 = load ptr, ptr %6, align 8, !tbaa !20
  %9 = call noundef ptr @_ZSt12construct_atIiJRKiEEDTgsnwcvPvLi0E_T_pispclsr3stdE7declvalIT0_EEEEPS3_DpOS4_(ptr noundef %7, ptr noundef nonnull align 4 dereferenceable(4) %8) #18
  ret void
}

; Function Attrs: mustprogress nounwind optsize uwtable
define linkonce_odr noundef nonnull align 1 dereferenceable(1) ptr @_ZNKSt7__cxx1112basic_stringIcSt11char_traitsIcESaIcEEixEm(ptr noundef nonnull align 8 dereferenceable(32) %0, i64 noundef %1) #1 comdat align 2 {
  %3 = alloca ptr, align 8
  %4 = alloca i64, align 8
  store ptr %0, ptr %3, align 8, !tbaa !41
  store i64 %1, ptr %4, align 8, !tbaa !18
  %5 = load ptr, ptr %3, align 8
  br label %6

6:                                                ; preds = %2
  br label %7

7:                                                ; preds = %6
  br label %8

8:                                                ; preds = %7
  %9 = call noundef ptr @_ZNKSt7__cxx1112basic_stringIcSt11char_traitsIcESaIcEE7_M_dataEv(ptr noundef nonnull align 8 dereferenceable(32) %5) #19
  %10 = load i64, ptr %4, align 8, !tbaa !18
  %11 = getelementptr inbounds nuw i8, ptr %9, i64 %10
  ret ptr %11
}

; Function Attrs: mustprogress optsize uwtable
define linkonce_odr void @_ZNSt6vectorIiSaIiEE9push_backERKi(ptr noundef nonnull align 8 dereferenceable(24) %0, ptr noundef nonnull align 4 dereferenceable(4) %1) #0 comdat align 2 {
  %3 = alloca ptr, align 8
  %4 = alloca ptr, align 8
  %5 = alloca %"class.__gnu_cxx::__normal_iterator", align 8
  store ptr %0, ptr %3, align 8, !tbaa !16
  store ptr %1, ptr %4, align 8, !tbaa !20
  %6 = load ptr, ptr %3, align 8
  %7 = getelementptr inbounds nuw %"struct.std::_Vector_base", ptr %6, i32 0, i32 0
  %8 = getelementptr inbounds nuw %"struct.std::_Vector_base<int, std::allocator<int>>::_Vector_impl_data", ptr %7, i32 0, i32 1
  %9 = load ptr, ptr %8, align 8, !tbaa !24
  %10 = getelementptr inbounds nuw %"struct.std::_Vector_base", ptr %6, i32 0, i32 0
  %11 = getelementptr inbounds nuw %"struct.std::_Vector_base<int, std::allocator<int>>::_Vector_impl_data", ptr %10, i32 0, i32 2
  %12 = load ptr, ptr %11, align 8, !tbaa !25
  %13 = icmp ne ptr %9, %12
  br i1 %13, label %14, label %24

14:                                               ; preds = %2
  %15 = getelementptr inbounds nuw %"struct.std::_Vector_base", ptr %6, i32 0, i32 0
  %16 = getelementptr inbounds nuw %"struct.std::_Vector_base", ptr %6, i32 0, i32 0
  %17 = getelementptr inbounds nuw %"struct.std::_Vector_base<int, std::allocator<int>>::_Vector_impl_data", ptr %16, i32 0, i32 1
  %18 = load ptr, ptr %17, align 8, !tbaa !24
  %19 = load ptr, ptr %4, align 8, !tbaa !20
  call void @_ZNSt16allocator_traitsISaIiEE9constructIiJRKiEEEvRS0_PT_DpOT0_(ptr noundef nonnull align 1 dereferenceable(1) %15, ptr noundef %18, ptr noundef nonnull align 4 dereferenceable(4) %19) #18
  %20 = getelementptr inbounds nuw %"struct.std::_Vector_base", ptr %6, i32 0, i32 0
  %21 = getelementptr inbounds nuw %"struct.std::_Vector_base<int, std::allocator<int>>::_Vector_impl_data", ptr %20, i32 0, i32 1
  %22 = load ptr, ptr %21, align 8, !tbaa !24
  %23 = getelementptr inbounds nuw i32, ptr %22, i32 1
  store ptr %23, ptr %21, align 8, !tbaa !24
  br label %30

24:                                               ; preds = %2
  %25 = call ptr @_ZNSt6vectorIiSaIiEE3endEv(ptr noundef nonnull align 8 dereferenceable(24) %6) #18
  %26 = getelementptr inbounds nuw %"class.__gnu_cxx::__normal_iterator", ptr %5, i32 0, i32 0
  store ptr %25, ptr %26, align 8
  %27 = load ptr, ptr %4, align 8, !tbaa !20
  %28 = getelementptr inbounds nuw %"class.__gnu_cxx::__normal_iterator", ptr %5, i32 0, i32 0
  %29 = load ptr, ptr %28, align 8
  call void @_ZNSt6vectorIiSaIiEE17_M_realloc_insertIJRKiEEEvN9__gnu_cxx17__normal_iteratorIPiS1_EEDpOT_(ptr noundef nonnull align 8 dereferenceable(24) %6, ptr %29, ptr noundef nonnull align 4 dereferenceable(4) %27) #19
  br label %30

30:                                               ; preds = %24, %14
  ret void
}

; Function Attrs: mustprogress optsize uwtable
define internal void @_ZN5ZXing6Pdf417L12EncodeBinaryERKNSt7__cxx1112basic_stringIcSt11char_traitsIcESaIcEEEiiiRSt6vectorIiSaIiEE(ptr noundef nonnull align 8 dereferenceable(32) %0, i32 noundef %1, i32 noundef %2, i32 noundef %3, ptr noundef nonnull align 8 dereferenceable(24) %4) #0 {
  %6 = alloca ptr, align 8
  %7 = alloca i32, align 4
  %8 = alloca i32, align 4
  %9 = alloca i32, align 4
  %10 = alloca ptr, align 8
  %11 = alloca i32, align 4
  %12 = alloca [5 x i32], align 16
  %13 = alloca i64, align 8
  %14 = alloca i32, align 4
  %15 = alloca i32, align 4
  %16 = alloca i32, align 4
  %17 = alloca i32, align 4
  %18 = alloca i32, align 4
  store ptr %0, ptr %6, align 8, !tbaa !41
  store i32 %1, ptr %7, align 4, !tbaa !12
  store i32 %2, ptr %8, align 4, !tbaa !12
  store i32 %3, ptr %9, align 4, !tbaa !12
  store ptr %4, ptr %10, align 8, !tbaa !16
  %19 = load i32, ptr %8, align 4, !tbaa !12
  %20 = icmp eq i32 %19, 1
  br i1 %20, label %21, label %26

21:                                               ; preds = %5
  %22 = load i32, ptr %9, align 4, !tbaa !12
  %23 = icmp eq i32 %22, 0
  br i1 %23, label %24, label %26

24:                                               ; preds = %21
  %25 = load ptr, ptr %10, align 8, !tbaa !16
  call void @_ZNSt6vectorIiSaIiEE9push_backERKi(ptr noundef nonnull align 8 dereferenceable(24) %25, ptr noundef nonnull align 4 dereferenceable(4) @_ZN5ZXing6Pdf417L13SHIFT_TO_BYTEE) #19
  br label %35

26:                                               ; preds = %21, %5
  %27 = load i32, ptr %8, align 4, !tbaa !12
  %28 = srem i32 %27, 6
  %29 = icmp eq i32 %28, 0
  br i1 %29, label %30, label %32

30:                                               ; preds = %26
  %31 = load ptr, ptr %10, align 8, !tbaa !16
  call void @_ZNSt6vectorIiSaIiEE9push_backERKi(ptr noundef nonnull align 8 dereferenceable(24) %31, ptr noundef nonnull align 4 dereferenceable(4) @_ZN5ZXing6Pdf417L13LATCH_TO_BYTEE) #19
  br label %34

32:                                               ; preds = %26
  %33 = load ptr, ptr %10, align 8, !tbaa !16
  call void @_ZNSt6vectorIiSaIiEE9push_backERKi(ptr noundef nonnull align 8 dereferenceable(24) %33, ptr noundef nonnull align 4 dereferenceable(4) @_ZN5ZXing6Pdf417L20LATCH_TO_BYTE_PADDEDE) #19
  br label %34

34:                                               ; preds = %32, %30
  br label %35

35:                                               ; preds = %34, %24
  call void @llvm.lifetime.start.p0(i64 4, ptr %11) #20
  %36 = load i32, ptr %7, align 4, !tbaa !12
  store i32 %36, ptr %11, align 4, !tbaa !12
  %37 = load i32, ptr %8, align 4, !tbaa !12
  %38 = icmp sge i32 %37, 6
  br i1 %38, label %39, label %104

39:                                               ; preds = %35
  call void @llvm.lifetime.start.p0(i64 20, ptr %12) #20
  br label %40

40:                                               ; preds = %100, %39
  %41 = load i32, ptr %7, align 4, !tbaa !12
  %42 = load i32, ptr %8, align 4, !tbaa !12
  %43 = add nsw i32 %41, %42
  %44 = load i32, ptr %11, align 4, !tbaa !12
  %45 = sub nsw i32 %43, %44
  %46 = icmp sge i32 %45, 6
  br i1 %46, label %47, label %103

47:                                               ; preds = %40
  call void @llvm.lifetime.start.p0(i64 8, ptr %13) #20
  store i64 0, ptr %13, align 8, !tbaa !18
  call void @llvm.lifetime.start.p0(i64 4, ptr %14) #20
  store i32 0, ptr %14, align 4, !tbaa !12
  br label %48

48:                                               ; preds = %67, %47
  %49 = load i32, ptr %14, align 4, !tbaa !12
  %50 = icmp slt i32 %49, 6
  br i1 %50, label %52, label %51

51:                                               ; preds = %48
  call void @llvm.lifetime.end.p0(i64 4, ptr %14) #20
  br label %70

52:                                               ; preds = %48
  %53 = load i64, ptr %13, align 8, !tbaa !18
  %54 = shl i64 %53, 8
  store i64 %54, ptr %13, align 8, !tbaa !18
  %55 = load ptr, ptr %6, align 8, !tbaa !41
  %56 = load i32, ptr %11, align 4, !tbaa !12
  %57 = load i32, ptr %14, align 4, !tbaa !12
  %58 = add nsw i32 %56, %57
  %59 = sext i32 %58 to i64
  %60 = call noundef nonnull align 1 dereferenceable(1) ptr @_ZNKSt7__cxx1112basic_stringIcSt11char_traitsIcESaIcEEixEm(ptr noundef nonnull align 8 dereferenceable(32) %55, i64 noundef %59) #18
  %61 = load i8, ptr %60, align 1, !tbaa !35
  %62 = sext i8 %61 to i32
  %63 = and i32 %62, 255
  %64 = sext i32 %63 to i64
  %65 = load i64, ptr %13, align 8, !tbaa !18
  %66 = add nsw i64 %65, %64
  store i64 %66, ptr %13, align 8, !tbaa !18
  br label %67

67:                                               ; preds = %52
  %68 = load i32, ptr %14, align 4, !tbaa !12
  %69 = add nsw i32 %68, 1
  store i32 %69, ptr %14, align 4, !tbaa !12
  br label %48, !llvm.loop !43

70:                                               ; preds = %51
  call void @llvm.lifetime.start.p0(i64 4, ptr %15) #20
  store i32 0, ptr %15, align 4, !tbaa !12
  br label %71

71:                                               ; preds = %84, %70
  %72 = load i32, ptr %15, align 4, !tbaa !12
  %73 = icmp slt i32 %72, 5
  br i1 %73, label %75, label %74

74:                                               ; preds = %71
  call void @llvm.lifetime.end.p0(i64 4, ptr %15) #20
  br label %87

75:                                               ; preds = %71
  %76 = load i64, ptr %13, align 8, !tbaa !18
  %77 = srem i64 %76, 900
  %78 = trunc i64 %77 to i32
  %79 = load i32, ptr %15, align 4, !tbaa !12
  %80 = sext i32 %79 to i64
  %81 = getelementptr inbounds [5 x i32], ptr %12, i64 0, i64 %80
  store i32 %78, ptr %81, align 4, !tbaa !12
  %82 = load i64, ptr %13, align 8, !tbaa !18
  %83 = sdiv i64 %82, 900
  store i64 %83, ptr %13, align 8, !tbaa !18
  br label %84

84:                                               ; preds = %75
  %85 = load i32, ptr %15, align 4, !tbaa !12
  %86 = add nsw i32 %85, 1
  store i32 %86, ptr %15, align 4, !tbaa !12
  br label %71, !llvm.loop !44

87:                                               ; preds = %74
  call void @llvm.lifetime.start.p0(i64 4, ptr %16) #20
  store i32 4, ptr %16, align 4, !tbaa !12
  br label %88

88:                                               ; preds = %97, %87
  %89 = load i32, ptr %16, align 4, !tbaa !12
  %90 = icmp sge i32 %89, 0
  br i1 %90, label %92, label %91

91:                                               ; preds = %88
  call void @llvm.lifetime.end.p0(i64 4, ptr %16) #20
  br label %100

92:                                               ; preds = %88
  %93 = load ptr, ptr %10, align 8, !tbaa !16
  %94 = load i32, ptr %16, align 4, !tbaa !12
  %95 = sext i32 %94 to i64
  %96 = getelementptr inbounds [5 x i32], ptr %12, i64 0, i64 %95
  call void @_ZNSt6vectorIiSaIiEE9push_backERKi(ptr noundef nonnull align 8 dereferenceable(24) %93, ptr noundef nonnull align 4 dereferenceable(4) %96) #19
  br label %97

97:                                               ; preds = %92
  %98 = load i32, ptr %16, align 4, !tbaa !12
  %99 = add nsw i32 %98, -1
  store i32 %99, ptr %16, align 4, !tbaa !12
  br label %88, !llvm.loop !45

100:                                              ; preds = %91
  %101 = load i32, ptr %11, align 4, !tbaa !12
  %102 = add nsw i32 %101, 6
  store i32 %102, ptr %11, align 4, !tbaa !12
  call void @llvm.lifetime.end.p0(i64 8, ptr %13) #20
  br label %40, !llvm.loop !46

103:                                              ; preds = %40
  call void @llvm.lifetime.end.p0(i64 20, ptr %12) #20
  br label %104

104:                                              ; preds = %103, %35
  call void @llvm.lifetime.start.p0(i64 4, ptr %17) #20
  %105 = load i32, ptr %11, align 4, !tbaa !12
  store i32 %105, ptr %17, align 4, !tbaa !12
  br label %106

106:                                              ; preds = %122, %104
  %107 = load i32, ptr %17, align 4, !tbaa !12
  %108 = load i32, ptr %7, align 4, !tbaa !12
  %109 = load i32, ptr %8, align 4, !tbaa !12
  %110 = add nsw i32 %108, %109
  %111 = icmp slt i32 %107, %110
  br i1 %111, label %113, label %112

112:                                              ; preds = %106
  call void @llvm.lifetime.end.p0(i64 4, ptr %17) #20
  br label %125

113:                                              ; preds = %106
  call void @llvm.lifetime.start.p0(i64 4, ptr %18) #20
  %114 = load ptr, ptr %6, align 8, !tbaa !41
  %115 = load i32, ptr %17, align 4, !tbaa !12
  %116 = sext i32 %115 to i64
  %117 = call noundef nonnull align 1 dereferenceable(1) ptr @_ZNKSt7__cxx1112basic_stringIcSt11char_traitsIcESaIcEEixEm(ptr noundef nonnull align 8 dereferenceable(32) %114, i64 noundef %116) #18
  %118 = load i8, ptr %117, align 1, !tbaa !35
  %119 = sext i8 %118 to i32
  %120 = and i32 %119, 255
  store i32 %120, ptr %18, align 4, !tbaa !12
  %121 = load ptr, ptr %10, align 8, !tbaa !16
  call void @_ZNSt6vectorIiSaIiEE9push_backERKi(ptr noundef nonnull align 8 dereferenceable(24) %121, ptr noundef nonnull align 4 dereferenceable(4) %18) #19
  call void @llvm.lifetime.end.p0(i64 4, ptr %18) #20
  br label %122

122:                                              ; preds = %113
  %123 = load i32, ptr %17, align 4, !tbaa !12
  %124 = add nsw i32 %123, 1
  store i32 %124, ptr %17, align 4, !tbaa !12
  br label %106, !llvm.loop !47

125:                                              ; preds = %112
  call void @llvm.lifetime.end.p0(i64 4, ptr %11) #20
  ret void
}