; Function Attrs: mustprogress optsize uwtable
define internal fastcc void @_ZN5ZXing6Pdf417L12EncodeBinaryERKNSt7__cxx1112basic_stringIcSt11char_traitsIcESaIcEEEiiiRSt6vectorIiSaIiEE(ptr noundef nonnull readonly align 8 captures(none) dereferenceable(32) %0, i32 noundef %1, i32 noundef range(i32 0, 3) %2, ptr noundef nonnull align 8 dereferenceable(24) %3) unnamed_addr #0 {
  %5 = alloca [5 x i32], align 16
  %6 = alloca i32, align 4
  %7 = icmp eq i32 %1, 1
  %8 = icmp eq i32 %2, 0
  %or.cond = and i1 %7, %8
  br i1 %or.cond, label %9, label %17

9:                                                ; preds = %4
  %10 = getelementptr inbounds nuw i8, ptr %3, i64 8
  %11 = load ptr, ptr %10, align 8, !tbaa !13
  %12 = getelementptr inbounds nuw i8, ptr %3, i64 16
  %13 = load ptr, ptr %12, align 8, !tbaa !16
  %.not.i = icmp eq ptr %11, %13
  br i1 %.not.i, label %16, label %14

14:                                               ; preds = %9
  store i32 913, ptr %11, align 4, !tbaa !11
  %15 = getelementptr inbounds nuw i8, ptr %11, i64 4
  store ptr %15, ptr %10, align 8, !tbaa !13
  br label %_ZNSt6vectorIiSaIiEE9push_backERKi.exit.thread

16:                                               ; preds = %9
  tail call void @_ZNSt6vectorIiSaIiEE17_M_realloc_insertIJRKiEEEvN9__gnu_cxx17__normal_iteratorIPiS1_EEDpOT_(ptr noundef nonnull align 8 dereferenceable(24) %3, ptr %11, ptr noundef nonnull align 4 dereferenceable(4) @_ZN5ZXing6Pdf417L13SHIFT_TO_BYTEE) #13
  br label %_ZNSt6vectorIiSaIiEE9push_backERKi.exit.thread

17:                                               ; preds = %4
  %18 = srem i32 %1, 6
  %19 = icmp eq i32 %18, 0
  %20 = getelementptr inbounds nuw i8, ptr %3, i64 8
  %21 = load ptr, ptr %20, align 8, !tbaa !13
  %22 = getelementptr inbounds nuw i8, ptr %3, i64 16
  %23 = load ptr, ptr %22, align 8, !tbaa !16
  %.not.i43 = icmp eq ptr %21, %23
  br i1 %19, label %24, label %28

24:                                               ; preds = %17
  br i1 %.not.i43, label %27, label %25

25:                                               ; preds = %24
  store i32 924, ptr %21, align 4, !tbaa !11
  %26 = getelementptr inbounds nuw i8, ptr %21, i64 4
  store ptr %26, ptr %20, align 8, !tbaa !13
  br label %_ZNSt6vectorIiSaIiEE9push_backERKi.exit

27:                                               ; preds = %24
  tail call void @_ZNSt6vectorIiSaIiEE17_M_realloc_insertIJRKiEEEvN9__gnu_cxx17__normal_iteratorIPiS1_EEDpOT_(ptr noundef nonnull align 8 dereferenceable(24) %3, ptr %21, ptr noundef nonnull align 4 dereferenceable(4) @_ZN5ZXing6Pdf417L13LATCH_TO_BYTEE) #13
  br label %_ZNSt6vectorIiSaIiEE9push_backERKi.exit

28:                                               ; preds = %17
  br i1 %.not.i43, label %31, label %29

29:                                               ; preds = %28
  store i32 901, ptr %21, align 4, !tbaa !11
  %30 = getelementptr inbounds nuw i8, ptr %21, i64 4
  store ptr %30, ptr %20, align 8, !tbaa !13
  br label %_ZNSt6vectorIiSaIiEE9push_backERKi.exit

31:                                               ; preds = %28
  tail call void @_ZNSt6vectorIiSaIiEE17_M_realloc_insertIJRKiEEEvN9__gnu_cxx17__normal_iteratorIPiS1_EEDpOT_(ptr noundef nonnull align 8 dereferenceable(24) %3, ptr %21, ptr noundef nonnull align 4 dereferenceable(4) @_ZN5ZXing6Pdf417L20LATCH_TO_BYTE_PADDEDE) #13
  br label %_ZNSt6vectorIiSaIiEE9push_backERKi.exit

_ZNSt6vectorIiSaIiEE9push_backERKi.exit:          ; preds = %31, %29, %27, %25
  %32 = icmp sgt i32 %1, 5
  br i1 %32, label %33, label %_ZNSt6vectorIiSaIiEE9push_backERKi.exit.thread

33:                                               ; preds = %_ZNSt6vectorIiSaIiEE9push_backERKi.exit
  call void @llvm.lifetime.start.p0(i64 20, ptr nonnull %5) #14
  %34 = getelementptr inbounds nuw i8, ptr %3, i64 8
  %35 = getelementptr inbounds nuw i8, ptr %3, i64 16
  br label %.preheader52

.preheader52:                                     ; preds = %33, %46
  %indvars.iv69 = phi i64 [ 0, %33 ], [ %indvars.iv.next70, %46 ]
  %36 = load ptr, ptr %0, align 8, !tbaa !21
  %invariant.gep = getelementptr inbounds nuw i8, ptr %36, i64 %indvars.iv69
  br label %37

37:                                               ; preds = %.preheader52, %37
  %indvars.iv = phi i64 [ 0, %.preheader52 ], [ %indvars.iv.next, %37 ]
  %.03953 = phi i64 [ 0, %.preheader52 ], [ %41, %37 ]
  %38 = shl i64 %.03953, 8
  %gep = getelementptr inbounds nuw i8, ptr %invariant.gep, i64 %indvars.iv
  %39 = load i8, ptr %gep, align 1, !tbaa !22
  %40 = zext i8 %39 to i64
  %41 = or disjoint i64 %38, %40
  %indvars.iv.next = add nuw nsw i64 %indvars.iv, 1
  %exitcond.not = icmp eq i64 %indvars.iv.next, 6
  br i1 %exitcond.not, label %.preheader51, label %37, !llvm.loop !35

.preheader51:                                     ; preds = %37, %.preheader51
  %indvars.iv62 = phi i64 [ %indvars.iv.next63, %.preheader51 ], [ 0, %37 ]
  %.155 = phi i64 [ %45, %.preheader51 ], [ %41, %37 ]
  %42 = srem i64 %.155, 900
  %43 = trunc nsw i64 %42 to i32
  %44 = getelementptr inbounds nuw [5 x i32], ptr %5, i64 0, i64 %indvars.iv62
  store i32 %43, ptr %44, align 4, !tbaa !11
  %45 = sdiv i64 %.155, 900
  %indvars.iv.next63 = add nuw nsw i64 %indvars.iv62, 1
  %exitcond65.not = icmp eq i64 %indvars.iv.next63, 5
  br i1 %exitcond65.not, label %.preheader, label %.preheader51, !llvm.loop !36

46:                                               ; preds = %_ZNSt6vectorIiSaIiEE9push_backERKi.exit48
  %indvars.iv.next70 = add nuw nsw i64 %indvars.iv69, 6
  %47 = trunc nuw i64 %indvars.iv.next70 to i32
  %48 = sub nsw i32 %1, %47
  %49 = icmp sgt i32 %48, 5
  br i1 %49, label %.preheader52, label %57, !llvm.loop !37

.preheader:                                       ; preds = %.preheader51, %_ZNSt6vectorIiSaIiEE9push_backERKi.exit48
  %indvars.iv66 = phi i64 [ %indvars.iv.next67, %_ZNSt6vectorIiSaIiEE9push_backERKi.exit48 ], [ 4, %.preheader51 ]
  %50 = getelementptr inbounds nuw [5 x i32], ptr %5, i64 0, i64 %indvars.iv66
  %51 = load ptr, ptr %34, align 8, !tbaa !13
  %52 = load ptr, ptr %35, align 8, !tbaa !16
  %.not.i47 = icmp eq ptr %51, %52
  br i1 %.not.i47, label %56, label %53

53:                                               ; preds = %.preheader
  %54 = load i32, ptr %50, align 4, !tbaa !11
  store i32 %54, ptr %51, align 4, !tbaa !11
  %55 = getelementptr inbounds nuw i8, ptr %51, i64 4
  store ptr %55, ptr %34, align 8, !tbaa !13
  br label %_ZNSt6vectorIiSaIiEE9push_backERKi.exit48

56:                                               ; preds = %.preheader
  call void @_ZNSt6vectorIiSaIiEE17_M_realloc_insertIJRKiEEEvN9__gnu_cxx17__normal_iteratorIPiS1_EEDpOT_(ptr noundef nonnull align 8 dereferenceable(24) %3, ptr %51, ptr noundef nonnull align 4 dereferenceable(4) %50) #13
  br label %_ZNSt6vectorIiSaIiEE9push_backERKi.exit48

_ZNSt6vectorIiSaIiEE9push_backERKi.exit48:        ; preds = %53, %56
  %indvars.iv.next67 = add nsw i64 %indvars.iv66, -1
  %.not = icmp eq i64 %indvars.iv66, 0
  br i1 %.not, label %46, label %.preheader, !llvm.loop !38

57:                                               ; preds = %46
  call void @llvm.lifetime.end.p0(i64 20, ptr nonnull %5) #14
  br label %_ZNSt6vectorIiSaIiEE9push_backERKi.exit.thread

_ZNSt6vectorIiSaIiEE9push_backERKi.exit.thread:   ; preds = %14, %16, %57, %_ZNSt6vectorIiSaIiEE9push_backERKi.exit
  %.040 = phi i32 [ %47, %57 ], [ 0, %_ZNSt6vectorIiSaIiEE9push_backERKi.exit ], [ 0, %16 ], [ 0, %14 ]
  %58 = icmp slt i32 %.040, %1
  br i1 %58, label %.lr.ph, label %._crit_edge

.lr.ph:                                           ; preds = %_ZNSt6vectorIiSaIiEE9push_backERKi.exit.thread
  %59 = getelementptr inbounds nuw i8, ptr %3, i64 8
  %60 = getelementptr inbounds nuw i8, ptr %3, i64 16
  %61 = zext i32 %.040 to i64
  br label %62

._crit_edge:                                      ; preds = %_ZNSt6vectorIiSaIiEE9push_backERKi.exit50, %_ZNSt6vectorIiSaIiEE9push_backERKi.exit.thread
  ret void

62:                                               ; preds = %.lr.ph, %_ZNSt6vectorIiSaIiEE9push_backERKi.exit50
  %indvars.iv72 = phi i64 [ %61, %.lr.ph ], [ %indvars.iv.next73, %_ZNSt6vectorIiSaIiEE9push_backERKi.exit50 ]
  call void @llvm.lifetime.start.p0(i64 4, ptr nonnull %6) #14
  %63 = load ptr, ptr %0, align 8, !tbaa !21
  %64 = getelementptr inbounds nuw i8, ptr %63, i64 %indvars.iv72
  %65 = load i8, ptr %64, align 1, !tbaa !22
  %66 = zext i8 %65 to i32
  store i32 %66, ptr %6, align 4, !tbaa !11
  %67 = load ptr, ptr %59, align 8, !tbaa !13
  %68 = load ptr, ptr %60, align 8, !tbaa !16
  %.not.i49 = icmp eq ptr %67, %68
  br i1 %.not.i49, label %71, label %69

69:                                               ; preds = %62
  store i32 %66, ptr %67, align 4, !tbaa !11
  %70 = getelementptr inbounds nuw i8, ptr %67, i64 4
  store ptr %70, ptr %59, align 8, !tbaa !13
  br label %_ZNSt6vectorIiSaIiEE9push_backERKi.exit50

71:                                               ; preds = %62
  call void @_ZNSt6vectorIiSaIiEE17_M_realloc_insertIJRKiEEEvN9__gnu_cxx17__normal_iteratorIPiS1_EEDpOT_(ptr noundef nonnull align 8 dereferenceable(24) %3, ptr %67, ptr noundef nonnull align 4 dereferenceable(4) %6) #13
  br label %_ZNSt6vectorIiSaIiEE9push_backERKi.exit50

_ZNSt6vectorIiSaIiEE9push_backERKi.exit50:        ; preds = %69, %71
  call void @llvm.lifetime.end.p0(i64 4, ptr nonnull %6) #14
  %indvars.iv.next73 = add nuw nsw i64 %indvars.iv72, 1
  %72 = trunc nuw i64 %indvars.iv.next73 to i32
  %73 = icmp sgt i32 %1, %72
  br i1 %73, label %62, label %._crit_edge, !llvm.loop !39
}